target datalayout = "e-m:e-p270:32:32-p271:32:32-p272:64:64-i64:64-i128:128-f80:128-n8:16:32:64-S128"
target triple = "x86_64-pc-linux-gnu"

%"class.boost::atomics::atomic_ref" = type { %"class.boost::atomics::detail::base_atomic_ref" }
%"class.boost::atomics::detail::base_atomic_ref" = type { %"class.boost::atomics::detail::base_atomic_ref_common" }
%"class.boost::atomics::detail::base_atomic_ref_common" = type { ptr }

@_ZN5boost10filesystem6detail12_GLOBAL__N_111fill_randomE = internal global ptr @_ZN5boost10filesystem6detail12_GLOBAL__N_122fill_random_dev_randomEPvm, align 8

; Function Attrs: alwaysinline mustprogress nounwind uwtable
define linkonce_odr hidden noundef i64 @_ZN5boost7atomics6detail17bitwise_cast_implImLm8EPFiPvmEEET_RKT1_St17integral_constantIbLb1EE(ptr noundef nonnull align 8 dereferenceable(8) %0) #4 comdat {
  %2 = alloca ptr, align 8
  store ptr %0, ptr %2, align 8, !tbaa !3
  %3 = load ptr, ptr %2, align 8, !tbaa !3
  %4 = load i64, ptr %3, align 8, !tbaa !16
  ret i64 %4
}

; Function Attrs: alwaysinline mustprogress nounwind uwtable
define linkonce_odr hidden noundef ptr @_ZN5boost7atomics6detail9addressofIPFiPvmEEEPT_RS6_(ptr noundef nonnull align 8 dereferenceable(8) %0) #4 comdat {
  %2 = alloca ptr, align 8
  store ptr %0, ptr %2, align 8, !tbaa !3
  %3 = load ptr, ptr %2, align 8, !tbaa !3
  ret ptr %3
}

; Function Attrs: alwaysinline mustprogress nounwind uwtable
define linkonce_odr hidden noundef i32 @_ZN5boost7atomics6detail27convert_memory_order_to_gccENS_12memory_orderE(i32 noundef %0) #4 comdat {
  %2 = alloca i32, align 4
  store i32 %0, ptr %2, align 4, !tbaa !24
  %3 = load i32, ptr %2, align 4, !tbaa !24
  %4 = icmp eq i32 %3, 0
  br i1 %4, label %5, label %6

5:                                                ; preds = %1
  br label %28

6:                                                ; preds = %1
  %7 = load i32, ptr %2, align 4, !tbaa !24
  %8 = icmp eq i32 %7, 1
  br i1 %8, label %9, label %10

9:                                                ; preds = %6
  br label %26

10:                                               ; preds = %6
  %11 = load i32, ptr %2, align 4, !tbaa !24
  %12 = icmp eq i32 %11, 2
  br i1 %12, label %13, label %14

13:                                               ; preds = %10
  br label %24

14:                                               ; preds = %10
  %15 = load i32, ptr %2, align 4, !tbaa !24
  %16 = icmp eq i32 %15, 4
  br i1 %16, label %17, label %18

17:                                               ; preds = %14
  br label %22

18:                                               ; preds = %14
  %19 = load i32, ptr %2, align 4, !tbaa !24
  %20 = icmp eq i32 %19, 6
  %21 = select i1 %20, i32 4, i32 5
  br label %22

22:                                               ; preds = %18, %17
  %23 = phi i32 [ 3, %17 ], [ %21, %18 ]
  br label %24

24:                                               ; preds = %22, %13
  %25 = phi i32 [ 2, %13 ], [ %23, %22 ]
  br label %26

26:                                               ; preds = %24, %9
  %27 = phi i32 [ 1, %9 ], [ %25, %24 ]
  br label %28

28:                                               ; preds = %26, %5
  %29 = phi i32 [ 0, %5 ], [ %27, %26 ]
  ret i32 %29
}

; Function Attrs: alwaysinline mustprogress nounwind uwtable
define linkonce_odr hidden noundef i64 @_ZN5boost7atomics6detail12bitwise_castImLm8EPFiPvmEEET_RKT1_(ptr noundef nonnull align 8 dereferenceable(8) %0) #4 comdat {
  %2 = alloca ptr, align 8
  store ptr %0, ptr %2, align 8, !tbaa !3
  %3 = load ptr, ptr %2, align 8, !tbaa !3
  %4 = call noundef i64 @_ZN5boost7atomics6detail17bitwise_cast_implImLm8EPFiPvmEEET_RKT1_St17integral_constantIbLb1EE(ptr noundef nonnull align 8 dereferenceable(8) %3) #13
  ret i64 %4
}

; Function Attrs: alwaysinline mustprogress nounwind uwtable
define linkonce_odr hidden void @_ZN5boost7atomics6detail22base_atomic_ref_commonIPFiPvmELb0ELb0EEC2ERS5_(ptr noundef nonnull align 8 dereferenceable(8) %0, ptr noundef nonnull align 8 dereferenceable(8) %1) unnamed_addr #4 comdat align 2 {
  %3 = alloca ptr, align 8
  %4 = alloca ptr, align 8
  store ptr %0, ptr %3, align 8, !tbaa !3
  store ptr %1, ptr %4, align 8, !tbaa !3
  %5 = load ptr, ptr %3, align 8
  %6 = getelementptr inbounds nuw %"class.boost::atomics::detail::base_atomic_ref_common", ptr %5, i32 0, i32 0
  %7 = load ptr, ptr %4, align 8, !tbaa !3
  %8 = call noundef ptr @_ZN5boost7atomics6detail9addressofIPFiPvmEEEPT_RS6_(ptr noundef nonnull align 8 dereferenceable(8) %7) #13
  store ptr %8, ptr %6, align 8, !tbaa !26
  ret void
}

; Function Attrs: alwaysinline mustprogress nounwind uwtable
define linkonce_odr hidden void @_ZN5boost7atomics6detail26core_operations_gcc_atomicILm8ELb0ELb0EE5storeERVmmNS_12memory_orderE(ptr noundef nonnull align 8 dereferenceable(8) %0, i64 noundef %1, i32 noundef %2) #4 comdat align 2 {
  %4 = alloca ptr, align 8
  %5 = alloca i64, align 8
  %6 = alloca i32, align 4
  %7 = alloca i64, align 8
  store ptr %0, ptr %4, align 8, !tbaa !3
  store i64 %1, ptr %5, align 8, !tbaa !16
  store i32 %2, ptr %6, align 4, !tbaa !24
  %8 = load ptr, ptr %4, align 8, !tbaa !3
  %9 = load i32, ptr %6, align 4, !tbaa !24
  %10 = call noundef i32 @_ZN5boost7atomics6detail27convert_memory_order_to_gccENS_12memory_orderE(i32 noundef %9) #13
  %11 = load i64, ptr %5, align 8, !tbaa !16
  store i64 %11, ptr %7, align 8, !tbaa !16
  switch i32 %10, label %12 [
    i32 3, label %14
    i32 5, label %16
  ]

12:                                               ; preds = %3
  %13 = load i64, ptr %7, align 8
  store atomic volatile i64 %13, ptr %8 monotonic, align 8
  br label %18

14:                                               ; preds = %3
  %15 = load i64, ptr %7, align 8
  store atomic volatile i64 %15, ptr %8 release, align 8
  br label %18

16:                                               ; preds = %3
  %17 = load i64, ptr %7, align 8
  store atomic volatile i64 %17, ptr %8 seq_cst, align 8
  br label %18

18:                                               ; preds = %16, %14, %12
  ret void
}

; Function Attrs: alwaysinline mustprogress nounwind uwtable
define linkonce_odr hidden noundef i64 @_ZN5boost7atomics6detail12bitwise_castImPFiPvmEEET_RKT0_(ptr noundef nonnull align 8 dereferenceable(8) %0) #4 comdat {
  %2 = alloca ptr, align 8
  store ptr %0, ptr %2, align 8, !tbaa !3
  %3 = load ptr, ptr %2, align 8, !tbaa !3
  %4 = call noundef i64 @_ZN5boost7atomics6detail12bitwise_castImLm8EPFiPvmEEET_RKT1_(ptr noundef nonnull align 8 dereferenceable(8) %3) #13
  ret i64 %4
}

; Function Attrs: alwaysinline mustprogress nounwind uwtable
define linkonce_odr hidden noundef nonnull align 8 dereferenceable(8) ptr @_ZNK5boost7atomics6detail22base_atomic_ref_commonIPFiPvmELb0ELb0EE7storageEv(ptr noundef nonnull align 8 dereferenceable(8) %0) #4 comdat align 2 {
  %2 = alloca ptr, align 8
  store ptr %0, ptr %2, align 8, !tbaa !3
  %3 = load ptr, ptr %2, align 8
  %4 = getelementptr inbounds nuw %"class.boost::atomics::detail::base_atomic_ref_common", ptr %3, i32 0, i32 0
  %5 = load ptr, ptr %4, align 8, !tbaa !26
  ret ptr %5
}

; Function Attrs: alwaysinline mustprogress nounwind uwtable
define linkonce_odr hidden void @_ZN5boost7atomics6detail15base_atomic_refIPFiPvmEvLb0EEC2ERS5_(ptr noundef nonnull align 8 dereferenceable(8) %0, ptr noundef nonnull align 8 dereferenceable(8) %1) unnamed_addr #4 comdat align 2 {
  %3 = alloca ptr, align 8
  %4 = alloca ptr, align 8
  store ptr %0, ptr %3, align 8, !tbaa !3
  store ptr %1, ptr %4, align 8, !tbaa !3
  %5 = load ptr, ptr %3, align 8
  %6 = load ptr, ptr %4, align 8, !tbaa !3
  call void @_ZN5boost7atomics6detail22base_atomic_ref_commonIPFiPvmELb0ELb0EEC2ERS5_(ptr noundef nonnull align 8 dereferenceable(8) %5, ptr noundef nonnull align 8 dereferenceable(8) %6) #13
  ret void
}

; Function Attrs: alwaysinline mustprogress nounwind uwtable
define linkonce_odr hidden void @_ZNK5boost7atomics6detail15base_atomic_refIPFiPvmEvLb0EE5storeES5_NS_12memory_orderE(ptr noundef nonnull align 8 dereferenceable(8) %0, ptr noundef %1, i32 noundef %2) #4 comdat align 2 {
  %4 = alloca ptr, align 8
  %5 = alloca ptr, align 8
  %6 = alloca i32, align 4
  store ptr %0, ptr %4, align 8, !tbaa !3
  store ptr %1, ptr %5, align 8, !tbaa !3
  store i32 %2, ptr %6, align 4, !tbaa !24
  %7 = load ptr, ptr %4, align 8
  %8 = call noundef nonnull align 8 dereferenceable(8) ptr @_ZNK5boost7atomics6detail22base_atomic_ref_commonIPFiPvmELb0ELb0EE7storageEv(ptr noundef nonnull align 8 dereferenceable(8) %7) #13
  %9 = call noundef i64 @_ZN5boost7atomics6detail12bitwise_castImPFiPvmEEET_RKT0_(ptr noundef nonnull align 8 dereferenceable(8) %5) #13
  %10 = load i32, ptr %6, align 4, !tbaa !24
  call void @_ZN5boost7atomics6detail26core_operations_gcc_atomicILm8ELb0ELb0EE5storeERVmmNS_12memory_orderE(ptr noundef nonnull align 8 dereferenceable(8) %8, i64 noundef %9, i32 noundef %10) #13
  ret void
}

; Function Attrs: alwaysinline mustprogress nounwind uwtable
define linkonce_odr hidden void @_ZN5boost7atomics10atomic_refIPFiPvmEEC2ERS4_(ptr noundef nonnull align 8 dereferenceable(8) %0, ptr noundef nonnull align 8 dereferenceable(8) %1) unnamed_addr #4 comdat align 2 {
  %3 = alloca ptr, align 8
  %4 = alloca ptr, align 8
  store ptr %0, ptr %3, align 8, !tbaa !3
  store ptr %1, ptr %4, align 8, !tbaa !3
  %5 = load ptr, ptr %3, align 8
  %6 = load ptr, ptr %4, align 8, !tbaa !3
  call void @_ZN5boost7atomics6detail15base_atomic_refIPFiPvmEvLb0EEC2ERS5_(ptr noundef nonnull align 8 dereferenceable(8) %5, ptr noundef nonnull align 8 dereferenceable(8) %6) #13
  ret void
}

; Function Attrs: alwaysinline mustprogress nounwind uwtable
define linkonce_odr hidden void @_ZN5boost10filesystem6detail20atomic_store_relaxedIPFiPvmEEEvRT_S6_(ptr noundef nonnull align 8 dereferenceable(8) %0, ptr noundef %1) #4 comdat {
  %3 = alloca ptr, align 8
  %4 = alloca ptr, align 8
  %5 = alloca %"class.boost::atomics::atomic_ref", align 8
  store ptr %0, ptr %3, align 8, !tbaa !3
  store ptr %1, ptr %4, align 8, !tbaa !3
  call void @llvm.lifetime.start.p0(i64 8, ptr %5) #13
  %6 = load ptr, ptr %3, align 8, !tbaa !3
  call void @_ZN5boost7atomics10atomic_refIPFiPvmEEC2ERS4_(ptr noundef nonnull align 8 dereferenceable(8) %5, ptr noundef nonnull align 8 dereferenceable(8) %6) #13
  %7 = load ptr, ptr %4, align 8, !tbaa !3
  call void @_ZNK5boost7atomics6detail15base_atomic_refIPFiPvmEvLb0EE5storeES5_NS_12memory_orderE(ptr noundef nonnull align 8 dereferenceable(8) %5, ptr noundef %7, i32 noundef 0) #13
  call void @llvm.lifetime.end.p0(i64 8, ptr %5) #13
  ret void
}

; Function Attrs: mustprogress uwtable
define hidden void @_ZN5boost10filesystem6detail21init_fill_random_implEjjj(i32 noundef %0, i32 noundef %1, i32 noundef %2) #3 {
  %4 = alloca i32, align 4
  %5 = alloca i32, align 4
  %6 = alloca i32, align 4
  %7 = alloca ptr, align 8
  store i32 %0, ptr %4, align 4, !tbaa !7
  store i32 %1, ptr %5, align 4, !tbaa !7
  store i32 %2, ptr %6, align 4, !tbaa !7
  call void @llvm.lifetime.start.p0(i64 8, ptr %7) #13
  store ptr @_ZN5boost10filesystem6detail12_GLOBAL__N_122fill_random_dev_randomEPvm, ptr %7, align 8, !tbaa !3
  %8 = load i32, ptr %4, align 4, !tbaa !7
  %9 = icmp ugt i32 %8, 3
  br i1 %9, label %16, label %10

10:                                               ; preds = %3
  %11 = load i32, ptr %4, align 4, !tbaa !7
  %12 = icmp eq i32 %11, 3
  br i1 %12, label %13, label %17

13:                                               ; preds = %10
  %14 = load i32, ptr %5, align 4, !tbaa !7
  %15 = icmp uge i32 %14, 17
  br i1 %15, label %16, label %17

16:                                               ; preds = %13, %3
  store ptr @_ZN5boost10filesystem6detail12_GLOBAL__N_121fill_random_getrandomEPvm, ptr %7, align 8, !tbaa !3
  br label %17

17:                                               ; preds = %16, %13, %10
  %18 = load ptr, ptr %7, align 8, !tbaa !3
  call void @_ZN5boost10filesystem6detail20atomic_store_relaxedIPFiPvmEEEvRT_S6_(ptr noundef nonnull align 8 dereferenceable(8) @_ZN5boost10filesystem6detail12_GLOBAL__N_111fill_randomE, ptr noundef %18)
  call void @llvm.lifetime.end.p0(i64 8, ptr %7) #13
  ret void
}