; Function Attrs: mustprogress nofree norecurse nounwind memory(readwrite, argmem: none) uwtable
define hidden void @_ZN5boost10filesystem6detail21init_fill_random_implEjjj(i32 noundef %0, i32 noundef %1, i32 noundef %2) local_unnamed_addr #3 {
  %4 = icmp ugt i32 %0, 3
  br i1 %4, label %.split, label %5

5:                                                ; preds = %3
  %6 = icmp eq i32 %0, 3
  %7 = icmp ugt i32 %1, 16
  %or.cond = and i1 %6, %7
  br i1 %or.cond, label %.split, label %.split4

.split:                                           ; preds = %3, %5
  br label %.split4

.split4:                                          ; preds = %5, %.split
  %.sink = phi i64 [ ptrtoint (ptr @_ZN5boost10filesystem6detail12_GLOBAL__N_121fill_random_getrandomEPvm to i64), %.split ], [ ptrtoint (ptr @_ZN5boost10filesystem6detail12_GLOBAL__N_122fill_random_dev_randomEPvm to i64), %5 ]
  store atomic volatile i64 %.sink, ptr @_ZN5boost10filesystem6detail12_GLOBAL__N_111fill_randomE monotonic, align 8
  ret void
}